; Function Attrs: mustprogress nofree norecurse nosync nounwind willreturn memory(argmem: write) uwtable
define hidden void @_ZN5logos5PointC2Ev(ptr noundef nonnull writeonly align 8 captures(none) dereferenceable(48) initializes((0, 41), (44, 48)) %0) unnamed_addr #3 align 2 {
  store float 0.000000e+00, ptr %0, align 8, !tbaa !3
  %2 = getelementptr inbounds nuw i8, ptr %0, i64 4
  store float 0.000000e+00, ptr %2, align 4, !tbaa !17
  %3 = getelementptr inbounds nuw i8, ptr %0, i64 8
  store float 0.000000e+00, ptr %3, align 8, !tbaa !18
  %4 = getelementptr inbounds nuw i8, ptr %0, i64 12
  store float 1.000000e+00, ptr %4, align 4, !tbaa !19
  %5 = getelementptr inbounds nuw i8, ptr %0, i64 16
  %6 = getelementptr inbounds nuw i8, ptr %0, i64 44
  store i32 0, ptr %6, align 4, !tbaa !20
  tail call void @llvm.memset.p0.i64(ptr noundef nonnull align 8 dereferenceable(25) %5, i8 0, i64 25, i1 false)
  ret void
}